target datalayout = "e-m:e-p270:32:32-p271:32:32-p272:64:64-i64:64-i128:128-f80:128-n8:16:32:64-S128"
target triple = "x86_64-unknown-linux-gnu"

@.str.10 = private unnamed_addr constant [10 x i8] c"<unknown>\00", align 1
@.str.24 = private unnamed_addr constant [7 x i8] c"export\00", align 1
@.str.25 = private unnamed_addr constant [5 x i8] c"name\00", align 1
@.str.26 = private unnamed_addr constant [12 x i8] c"description\00", align 1
@.str.27 = private unnamed_addr constant [11 x i8] c"block size\00", align 1

; Function Attrs: nounwind sspstrong uwtable
define dso_local ptr @nbd_info_lookup(i16 noundef zeroext %info) #0 {
entry:
  %retval = alloca ptr, align 8
  %info.addr = alloca i16, align 2
  store i16 %info, ptr %info.addr, align 2
  %0 = load i16, ptr %info.addr, align 2
  %conv = zext i16 %0 to i32
  switch i32 %conv, label %sw.default [
    i32 0, label %sw.bb
    i32 1, label %sw.bb1
    i32 2, label %sw.bb2
    i32 3, label %sw.bb3
  ]

sw.bb:                                            ; preds = %entry
  store ptr @.str.24, ptr %retval, align 8
  br label %return

sw.bb1:                                           ; preds = %entry
  store ptr @.str.25, ptr %retval, align 8
  br label %return

sw.bb2:                                           ; preds = %entry
  store ptr @.str.26, ptr %retval, align 8
  br label %return

sw.bb3:                                           ; preds = %entry
  store ptr @.str.27, ptr %retval, align 8
  br label %return

sw.default:                                       ; preds = %entry
  store ptr @.str.10, ptr %retval, align 8
  br label %return

return:                                           ; preds = %sw.default, %sw.bb3, %sw.bb2, %sw.bb1, %sw.bb
  %1 = load ptr, ptr %retval, align 8
  ret ptr %1
}