; Function Attrs: mustprogress nofree norecurse nosync nounwind sspstrong willreturn memory(none) uwtable
define dso_local noundef nonnull ptr @nbd_info_lookup(i16 noundef zeroext %info) local_unnamed_addr #3 {
entry:
  %0 = icmp ult i16 %info, 4
  br i1 %0, label %switch.lookup, label %return

switch.lookup:                                    ; preds = %entry
  %1 = zext nneg i16 %info to i64
  %switch.gep = getelementptr inbounds nuw [4 x ptr], ptr @switch.table.nbd_info_lookup, i64 0, i64 %1
  %switch.load = load ptr, ptr %switch.gep, align 8
  br label %return

return:                                           ; preds = %entry, %switch.lookup
  %retval.0 = phi ptr [ %switch.load, %switch.lookup ], [ @.str.10, %entry ]
  ret ptr %retval.0
}